; Function Attrs: nounwind uwtable
define internal { i64, i64 } @js_os_readlink(ptr noundef %0, i64 %1, i64 %2, i32 %3, ptr nocapture noundef readonly %4) #0 {
  %6 = alloca [4096 x i8], align 16
  %7 = load i64, ptr %4, align 8
  %8 = getelementptr inbounds i8, ptr %4, i64 8
  %9 = load i64, ptr %8, align 8
  %10 = tail call ptr @JS_ToCStringLen2(ptr noundef %0, ptr noundef null, i64 %7, i64 %9, i32 noundef 0) #29
  %.not = icmp eq ptr %10, null
  br i1 %.not, label %34, label %11

11:                                               ; preds = %5
  %12 = call i64 @readlink(ptr noundef nonnull %10, ptr noundef nonnull %6, i64 noundef 4095) #29
  %13 = icmp slt i64 %12, 0
  br i1 %13, label %14, label %18

14:                                               ; preds = %11
  store i8 0, ptr %6, align 16
  %15 = tail call ptr @__errno_location() #28
  %16 = load i32, ptr %15, align 4
  %17 = zext i32 %16 to i64
  br label %20

18:                                               ; preds = %11
  %19 = getelementptr [4096 x i8], ptr %6, i64 0, i64 %12
  store i8 0, ptr %19, align 1
  br label %20

20:                                               ; preds = %18, %14
  %.0 = phi i64 [ %17, %14 ], [ 0, %18 ]
  tail call void @JS_FreeCString(ptr noundef %0, ptr noundef nonnull %10) #29
  %21 = call { i64, i64 } @JS_NewString(ptr noundef %0, ptr noundef nonnull %6) #29
  %22 = extractvalue { i64, i64 } %21, 0
  %23 = extractvalue { i64, i64 } %21, 1
  %24 = and i64 %23, 4294967295
  %.not.i.i = icmp eq i64 %24, 6
  br i1 %.not.i.i, label %25, label %26

25:                                               ; preds = %20
  %.sroa.416.0.extract.shift17.i.i = and i64 %22, -4294967296
  br label %make_string_error.exit

26:                                               ; preds = %20
  %27 = call { i64, i64 } @JS_NewArray(ptr noundef %0) #29
  %28 = extractvalue { i64, i64 } %27, 1
  %29 = and i64 %28, 4294967295
  %.not27.i.i = icmp eq i64 %29, 6
  br i1 %.not27.i.i, label %make_string_error.exit, label %30

30:                                               ; preds = %26
  %31 = extractvalue { i64, i64 } %27, 0
  %32 = call i32 @JS_DefinePropertyValueUint32(ptr noundef %0, i64 %31, i64 %28, i32 noundef 0, i64 %22, i64 %23, i32 noundef 7) #29
  %33 = call i32 @JS_DefinePropertyValueUint32(ptr noundef %0, i64 %31, i64 %28, i32 noundef 1, i64 %.0, i64 0, i32 noundef 7) #29
  %.sroa.416.0.extract.shift.i.i = and i64 %31, -4294967296
  br label %make_string_error.exit

make_string_error.exit:                           ; preds = %25, %26, %30
  %.sroa.014.0.i.i = phi i64 [ %22, %25 ], [ %31, %30 ], [ 0, %26 ]
  %.sroa.416.sroa.0.0.i.i = phi i64 [ %.sroa.416.0.extract.shift17.i.i, %25 ], [ %.sroa.416.0.extract.shift.i.i, %30 ], [ 0, %26 ]
  %.sroa.416.sroa.3.0.i.i = phi i64 [ %23, %25 ], [ %28, %30 ], [ 6, %26 ]
  %.sroa.014.0.insert.ext.i.i = and i64 %.sroa.014.0.i.i, 4294967295
  %.sroa.014.0.insert.insert.i.i = or disjoint i64 %.sroa.416.sroa.0.0.i.i, %.sroa.014.0.insert.ext.i.i
  br label %34

34:                                               ; preds = %5, %make_string_error.exit
  %.sroa.3.sroa.2.0 = phi i64 [ %.sroa.416.sroa.3.0.i.i, %make_string_error.exit ], [ 6, %5 ]
  %.sroa.09.0.insert.insert = phi i64 [ %.sroa.014.0.insert.insert.i.i, %make_string_error.exit ], [ 0, %5 ]
  %.fca.0.insert = insertvalue { i64, i64 } poison, i64 %.sroa.09.0.insert.insert, 0
  %.fca.1.insert = insertvalue { i64, i64 } %.fca.0.insert, i64 %.sroa.3.sroa.2.0, 1
  ret { i64, i64 } %.fca.1.insert
}